(dp0
Vengine
p1
S'pdflatex'
p2
sVpackages
p3
c__builtin__
set
p4
((lp5
tp6
Rp7
sVfiles_with_guttermarks
p8
g4
((lp9
S'ch_markov.tex'
p10
aV/Users/bjoernkjos-hanssen/Dropbox/statistics-for-calculus-students/ch_markov/TeX/ch_markov.tex
p11
aV/Users/bjoernkjos-hanssen/Dropbox/statistics-for-calculus-students/ch_markov/TeX/./ch_markov.tex
p12
atp13
Rp14
sVsynctex
p15
I01
s.